; Function Attrs: nounwind sspstrong uwtable
define internal i64 @rb_ary_reject_bang(i64 noundef %0) #4 {
  %2 = alloca %struct.select_bang_arg, align 8
  %3 = tail call i32 @rb_block_given_p() #24
  %.not = icmp eq i32 %3, 0
  br i1 %.not, label %4, label %8

4:                                                ; preds = %1
  %5 = tail call i64 @rb_frame_this_func() #24
  %6 = tail call i64 @rb_id2sym(i64 noundef %5) #24
  %7 = tail call i64 @rb_enumeratorize_with_size(i64 noundef %0, i64 noundef %6, i32 noundef 0, ptr noundef null, ptr noundef nonnull @ary_enum_length) #24
  br label %31

8:                                                ; preds = %1
  %9 = icmp eq i64 %0, 0
  %10 = and i64 %0, 7
  %11 = icmp ne i64 %10, 0
  %12 = or i1 %9, %11
  br i1 %12, label %RB_OBJ_FROZEN.exit.thread.i.i.i, label %RB_FL_ABLE.exit.i.i.i.i, !prof !17

RB_FL_ABLE.exit.i.i.i.i:                          ; preds = %8
  %13 = inttoptr i64 %0 to ptr
  %14 = load i64, ptr %13, align 8, !tbaa !7
  %15 = and i64 %14, 31
  %.not.i.i.i.i = icmp eq i64 %15, 27
  %16 = and i64 %14, 2048
  %17 = icmp ne i64 %16, 0
  %or.cond.i.i.i = or i1 %.not.i.i.i.i, %17
  br i1 %or.cond.i.i.i, label %RB_OBJ_FROZEN.exit.thread.i.i.i, label %rbimpl_RB_TYPE_P_fastpath.exit.i.i.i, !prof !18

RB_OBJ_FROZEN.exit.thread.i.i.i:                  ; preds = %RB_FL_ABLE.exit.i.i.i.i, %8
  tail call void @rb_error_frozen_object(i64 noundef %0) #23
  unreachable

rbimpl_RB_TYPE_P_fastpath.exit.i.i.i:             ; preds = %RB_FL_ABLE.exit.i.i.i.i
  %18 = icmp ne i64 %15, 5
  %19 = and i64 %14, 49152
  %.not.i.i.i = icmp eq i64 %19, 0
  %or.cond8.i.i.i = or i1 %18, %.not.i.i.i
  br i1 %or.cond8.i.i.i, label %RB_FL_ABLE.exit.i.i.i.i4, label %20, !prof !19

20:                                               ; preds = %rbimpl_RB_TYPE_P_fastpath.exit.i.i.i
  tail call void @rb_str_modify(i64 noundef %0) #24
  br label %RB_FL_ABLE.exit.i.i.i.i4

RB_FL_ABLE.exit.i.i.i.i4:                         ; preds = %20, %rbimpl_RB_TYPE_P_fastpath.exit.i.i.i
  tail call void @rb_ary_cancel_sharing(i64 noundef %0)
  call void @llvm.lifetime.start.p0(i64 24, ptr nonnull %2) #24
  %21 = load i64, ptr %13, align 8, !tbaa !7
  %22 = and i64 %21, 31
  %.not.i.i.i.i5 = icmp eq i64 %22, 27
  %23 = and i64 %21, 2048
  %24 = icmp ne i64 %23, 0
  %or.cond.i.i.i6 = or i1 %.not.i.i.i.i5, %24
  br i1 %or.cond.i.i.i6, label %RB_OBJ_FROZEN.exit.thread.i.i.i10, label %rbimpl_RB_TYPE_P_fastpath.exit.i.i.i7, !prof !18

RB_OBJ_FROZEN.exit.thread.i.i.i10:                ; preds = %RB_FL_ABLE.exit.i.i.i.i4
  tail call void @rb_error_frozen_object(i64 noundef %0) #23
  unreachable

rbimpl_RB_TYPE_P_fastpath.exit.i.i.i7:            ; preds = %RB_FL_ABLE.exit.i.i.i.i4
  %25 = icmp ne i64 %22, 5
  %26 = and i64 %21, 49152
  %.not.i.i.i8 = icmp eq i64 %26, 0
  %or.cond8.i.i.i9 = or i1 %25, %.not.i.i.i8
  br i1 %or.cond8.i.i.i9, label %ary_reject_bang.exit, label %27, !prof !19

27:                                               ; preds = %rbimpl_RB_TYPE_P_fastpath.exit.i.i.i7
  tail call void @rb_str_modify(i64 noundef %0) #24
  br label %ary_reject_bang.exit

ary_reject_bang.exit:                             ; preds = %rbimpl_RB_TYPE_P_fastpath.exit.i.i.i7, %27
  store i64 %0, ptr %2, align 8, !tbaa !101
  %28 = getelementptr inbounds nuw i8, ptr %2, i64 8
  %29 = ptrtoint ptr %2 to i64
  call void @llvm.memset.p0.i64(ptr noundef nonnull align 8 dereferenceable(16) %28, i8 0, i64 16, i1 false)
  %30 = call i64 @rb_ensure(ptr noundef nonnull @reject_bang_i, i64 noundef %29, ptr noundef nonnull @select_bang_ensure, i64 noundef %29) #24
  call void @llvm.lifetime.end.p0(i64 24, ptr nonnull %2) #24
  br label %31

31:                                               ; preds = %ary_reject_bang.exit, %4
  %.0 = phi i64 [ %30, %ary_reject_bang.exit ], [ %7, %4 ]
  ret i64 %.0
}